;--------------------------------------------------------
; File Created by SDCC : free open source ISO C Compiler 
; Version 4.2.2 #13350 (MINGW64)
;--------------------------------------------------------
	.module main
	.optsdcc -msm83
	
;--------------------------------------------------------
; Public variables in this module
;--------------------------------------------------------
	.globl _main
	.globl _set_sprite_data
	.globl _joypad
	.globl _delay
;--------------------------------------------------------
; special function registers
;--------------------------------------------------------
;--------------------------------------------------------
; ram data
;--------------------------------------------------------
	.area _DATA
;--------------------------------------------------------
; ram data
;--------------------------------------------------------
	.area _INITIALIZED
;--------------------------------------------------------
; absolute external ram data
;--------------------------------------------------------
	.area _DABS (ABS)
;--------------------------------------------------------
; global & static initialisations
;--------------------------------------------------------
	.area _HOME
	.area _GSINIT
	.area _GSFINAL
	.area _GSINIT
;--------------------------------------------------------
; Home
;--------------------------------------------------------
	.area _HOME
	.area _HOME
;--------------------------------------------------------
; code
;--------------------------------------------------------
	.area _CODE
;main.c:6: void main(){
;	---------------------------------
; Function main
; ---------------------------------
_main::
;main.c:9: set_sprite_data(0, 2, Smiler);
	ld	de, #_Smiler
	push	de
	ld	hl, #0x200
	push	hl
	call	_set_sprite_data
	add	sp, #4
;C:/gbdk/include/gb/gb.h:1602: shadow_OAM[nb].tile=tile;
	ld	hl, #(_shadow_OAM + 2)
	ld	(hl), #0x00
;C:/gbdk/include/gb/gb.h:1675: OAM_item_t * itm = &shadow_OAM[nb];
	ld	hl, #_shadow_OAM
;C:/gbdk/include/gb/gb.h:1676: itm->y=y, itm->x=x;
	ld	a, #0x4e
	ld	(hl+), a
	ld	(hl), #0x58
;main.c:12: SHOW_SPRITES;
	ldh	a, (_LCDC_REG + 0)
	or	a, #0x02
	ldh	(_LCDC_REG + 0), a
;main.c:14: while(1){
00107$:
;main.c:15: switch(joypad()){
	call	_joypad
	ld	c, a
	dec	a
	jr	Z, 00102$
	ld	a,c
	cp	a,#0x02
	jr	Z, 00101$
	cp	a,#0x04
	jr	Z, 00103$
	sub	a, #0x08
	jr	Z, 00104$
	jr	00105$
;main.c:16: case J_LEFT: 
00101$:
;C:/gbdk/include/gb/gb.h:1691: OAM_item_t * itm = &shadow_OAM[nb];
	ld	bc, #_shadow_OAM+0
;C:/gbdk/include/gb/gb.h:1692: itm->y+=y, itm->x+=x;
	ld	a, (bc)
	ld	(bc), a
	inc	bc
	ld	a, (bc)
	dec	a
	ld	(bc), a
;main.c:18: break;
	jr	00105$
;main.c:19: case J_RIGHT: 
00102$:
;C:/gbdk/include/gb/gb.h:1691: OAM_item_t * itm = &shadow_OAM[nb];
	ld	bc, #_shadow_OAM
;C:/gbdk/include/gb/gb.h:1692: itm->y+=y, itm->x+=x;
	ld	a, (bc)
	ld	(bc), a
	inc	bc
	ld	a, (bc)
	inc	a
	ld	(bc), a
;main.c:21: break;  
	jr	00105$
;main.c:22: case J_UP: 
00103$:
;C:/gbdk/include/gb/gb.h:1691: OAM_item_t * itm = &shadow_OAM[nb];
	ld	bc, #_shadow_OAM
;C:/gbdk/include/gb/gb.h:1692: itm->y+=y, itm->x+=x;
	ld	a, (bc)
	dec	a
	ld	(bc), a
	inc	bc
	ld	a, (bc)
	ld	(bc), a
;main.c:24: break; 
	jr	00105$
;main.c:25: case J_DOWN: 
00104$:
;C:/gbdk/include/gb/gb.h:1691: OAM_item_t * itm = &shadow_OAM[nb];
	ld	bc, #_shadow_OAM
;C:/gbdk/include/gb/gb.h:1692: itm->y+=y, itm->x+=x;
	ld	a, (bc)
	inc	a
	ld	(bc), a
	inc	bc
	ld	a, (bc)
	ld	(bc), a
;main.c:28: }
00105$:
;main.c:29: delay(100);
	ld	de, #0x0064
	call	_delay
;main.c:31: }
	jr	00107$
	.area _CODE
	.area _INITIALIZER
	.area _CABS (ABS)
