;--------------------------------------------------------
; File Created by SDCC : free open source ISO C Compiler 
; Version 4.2.2 #13350 (MINGW64)
;--------------------------------------------------------
	.module main
	.optsdcc -msm83
	
;--------------------------------------------------------
; Public variables in this module
;--------------------------------------------------------
	.globl _main
	.globl _set_sprite_data
	.globl _delay
;--------------------------------------------------------
; special function registers
;--------------------------------------------------------
;--------------------------------------------------------
; ram data
;--------------------------------------------------------
	.area _DATA
;--------------------------------------------------------
; ram data
;--------------------------------------------------------
	.area _INITIALIZED
;--------------------------------------------------------
; absolute external ram data
;--------------------------------------------------------
	.area _DABS (ABS)
;--------------------------------------------------------
; global & static initialisations
;--------------------------------------------------------
	.area _HOME
	.area _GSINIT
	.area _GSFINAL
	.area _GSINIT
;--------------------------------------------------------
; Home
;--------------------------------------------------------
	.area _HOME
	.area _HOME
;--------------------------------------------------------
; code
;--------------------------------------------------------
	.area _CODE
;main.c:6: void main() {
;	---------------------------------
; Function main
; ---------------------------------
_main::
;main.c:7: UINT8 currentspriteindex = 0;
	ld	c, #0x00
;main.c:9: set_sprite_data( 0, 2, Smiler );
	ld	de, #_Smiler
	push	de
	ld	hl, #0x200
	push	hl
	call	_set_sprite_data
	add	sp, #4
;C:/gbdk/include/gb/gb.h:1602: shadow_OAM[nb].tile=tile;
	ld	hl, #(_shadow_OAM + 2)
	ld	(hl), #0x00
;C:/gbdk/include/gb/gb.h:1675: OAM_item_t * itm = &shadow_OAM[nb];
	ld	hl, #_shadow_OAM
;C:/gbdk/include/gb/gb.h:1676: itm->y=y, itm->x=x;
	ld	a, #0x4e
	ld	(hl+), a
	ld	(hl), #0x58
;main.c:12: SHOW_SPRITES;
	ldh	a, (_LCDC_REG + 0)
	or	a, #0x02
	ldh	(_LCDC_REG + 0), a
;main.c:14: while( 1 ) {
00105$:
;main.c:15: if( currentspriteindex == 0 ) {
	ld	a, c
	or	a, a
;main.c:16: currentspriteindex = 1;
;main.c:19: currentspriteindex = 0;
	ld	c, #0x01
	jr	Z, 00103$
	ld	c, #0x00
00103$:
;C:/gbdk/include/gb/gb.h:1602: shadow_OAM[nb].tile=tile;
	ld	hl, #(_shadow_OAM + 2)
	ld	(hl), c
;main.c:22: delay( 1000 );
	push	bc
	ld	de, #0x03e8
	call	_delay
	pop	bc
;C:/gbdk/include/gb/gb.h:1691: OAM_item_t * itm = &shadow_OAM[nb];
	ld	de, #_shadow_OAM+0
;C:/gbdk/include/gb/gb.h:1692: itm->y+=y, itm->x+=x;
	ld	a, (de)
	ld	(de), a
	inc	de
	ld	a, (de)
	add	a, #0x0a
	ld	(de), a
;main.c:23: scroll_sprite( 0, 10, 0 );
;main.c:25: }
	jr	00105$
	.area _CODE
	.area _INITIALIZER
	.area _CABS (ABS)
